target datalayout = "e-m:e-p270:32:32-p271:32:32-p272:64:64-i64:64-i128:128-f80:128-n8:16:32:64-S128"
target triple = "x86_64-pc-linux-gnu"

%struct.png_struct_def = type { [1 x %struct.__jmp_buf_tag], ptr, ptr, i64, ptr, ptr, ptr, ptr, ptr, ptr, ptr, ptr, ptr, i8, i8, i32, i32, i32, i32, %struct.z_stream_s, ptr, i32, i32, i32, i32, i32, i32, i32, i32, i32, i32, i32, i32, i32, i32, i32, i32, i32, i32, i32, i32, i64, i32, i32, i32, ptr, ptr, ptr, ptr, i64, i32, i32, ptr, i16, i32, i16, i8, i8, i8, i8, i8, i8, i8, i8, i8, i8, i8, i8, i8, i8, i8, i16, i8, i32, %struct.png_color_16_struct, %struct.png_color_16_struct, ptr, i32, i32, i32, i32, ptr, ptr, ptr, ptr, ptr, ptr, %struct.png_color_8_struct, %struct.png_color_8_struct, ptr, %struct.png_color_16_struct, ptr, ptr, ptr, ptr, ptr, ptr, ptr, ptr, ptr, i32, i32, i64, i64, i64, i64, i32, i32, ptr, ptr, i32, [29 x i8], i32, ptr, ptr, i32, i32, ptr, i8, i8, i16, i16, ptr, i32, i8, ptr, ptr, ptr, ptr, ptr, ptr, ptr, i8, i32, i32, i32, i64, %struct.png_unknown_chunk_t, i64, ptr, i64, i32, i32, ptr, [4 x ptr], %struct.png_colorspace }
%struct.__jmp_buf_tag = type { [8 x i64], i32, %struct.__sigset_t }
%struct.__sigset_t = type { [16 x i64] }
%struct.z_stream_s = type { ptr, i32, i64, ptr, i32, i64, ptr, ptr, ptr, ptr, ptr, i32, i64, i64 }
%struct.png_color_8_struct = type { i8, i8, i8, i8, i8 }
%struct.png_color_16_struct = type { i8, i16, i16, i16, i16 }
%struct.png_unknown_chunk_t = type { [5 x i8], ptr, i64, i8 }
%struct.png_colorspace = type { i32, %struct.png_xy, %struct.png_XYZ, i16, i16 }
%struct.png_xy = type { i32, i32, i32, i32, i32, i32, i32, i32 }
%struct.png_XYZ = type { i32, i32, i32, i32, i32, i32, i32, i32, i32 }

; Function Attrs: nounwind uwtable
define void @png_push_fill_buffer(ptr noundef %0, ptr noundef %1, i64 noundef %2) #0 {
  %4 = alloca ptr, align 8
  %5 = alloca ptr, align 8
  %6 = alloca i64, align 8
  %7 = alloca ptr, align 8
  %8 = alloca i64, align 8
  %9 = alloca i64, align 8
  store ptr %0, ptr %4, align 8
  store ptr %1, ptr %5, align 8
  store i64 %2, ptr %6, align 8
  %10 = load ptr, ptr %4, align 8
  %11 = icmp eq ptr %10, null
  br i1 %11, label %12, label %13

12:                                               ; preds = %3
  br label %99

13:                                               ; preds = %3
  %14 = load ptr, ptr %5, align 8
  store ptr %14, ptr %7, align 8
  %15 = load ptr, ptr %4, align 8
  %16 = getelementptr inbounds %struct.png_struct_def, ptr %15, i32 0, i32 102
  %17 = load i64, ptr %16, align 8
  %18 = icmp ne i64 %17, 0
  br i1 %18, label %19, label %58

19:                                               ; preds = %13
  %20 = load i64, ptr %6, align 8
  %21 = load ptr, ptr %4, align 8
  %22 = getelementptr inbounds %struct.png_struct_def, ptr %21, i32 0, i32 102
  %23 = load i64, ptr %22, align 8
  %24 = icmp ult i64 %20, %23
  br i1 %24, label %25, label %27

25:                                               ; preds = %19
  %26 = load i64, ptr %6, align 8
  store i64 %26, ptr %8, align 8
  br label %31

27:                                               ; preds = %19
  %28 = load ptr, ptr %4, align 8
  %29 = getelementptr inbounds %struct.png_struct_def, ptr %28, i32 0, i32 102
  %30 = load i64, ptr %29, align 8
  store i64 %30, ptr %8, align 8
  br label %31

31:                                               ; preds = %27, %25
  %32 = load ptr, ptr %7, align 8
  %33 = load ptr, ptr %4, align 8
  %34 = getelementptr inbounds %struct.png_struct_def, ptr %33, i32 0, i32 96
  %35 = load ptr, ptr %34, align 8
  %36 = load i64, ptr %8, align 8
  call void @llvm.memcpy.p0.p0.i64(ptr align 1 %32, ptr align 1 %35, i64 %36, i1 false)
  %37 = load i64, ptr %8, align 8
  %38 = load i64, ptr %6, align 8
  %39 = sub i64 %38, %37
  store i64 %39, ptr %6, align 8
  %40 = load i64, ptr %8, align 8
  %41 = load ptr, ptr %7, align 8
  %42 = getelementptr inbounds i8, ptr %41, i64 %40
  store ptr %42, ptr %7, align 8
  %43 = load i64, ptr %8, align 8
  %44 = load ptr, ptr %4, align 8
  %45 = getelementptr inbounds %struct.png_struct_def, ptr %44, i32 0, i32 104
  %46 = load i64, ptr %45, align 8
  %47 = sub i64 %46, %43
  store i64 %47, ptr %45, align 8
  %48 = load i64, ptr %8, align 8
  %49 = load ptr, ptr %4, align 8
  %50 = getelementptr inbounds %struct.png_struct_def, ptr %49, i32 0, i32 102
  %51 = load i64, ptr %50, align 8
  %52 = sub i64 %51, %48
  store i64 %52, ptr %50, align 8
  %53 = load i64, ptr %8, align 8
  %54 = load ptr, ptr %4, align 8
  %55 = getelementptr inbounds %struct.png_struct_def, ptr %54, i32 0, i32 96
  %56 = load ptr, ptr %55, align 8
  %57 = getelementptr inbounds i8, ptr %56, i64 %53
  store ptr %57, ptr %55, align 8
  br label %58

58:                                               ; preds = %31, %13
  %59 = load i64, ptr %6, align 8
  %60 = icmp ne i64 %59, 0
  br i1 %60, label %61, label %99

61:                                               ; preds = %58
  %62 = load ptr, ptr %4, align 8
  %63 = getelementptr inbounds %struct.png_struct_def, ptr %62, i32 0, i32 105
  %64 = load i64, ptr %63, align 8
  %65 = icmp ne i64 %64, 0
  br i1 %65, label %66, label %99

66:                                               ; preds = %61
  %67 = load i64, ptr %6, align 8
  %68 = load ptr, ptr %4, align 8
  %69 = getelementptr inbounds %struct.png_struct_def, ptr %68, i32 0, i32 105
  %70 = load i64, ptr %69, align 8
  %71 = icmp ult i64 %67, %70
  br i1 %71, label %72, label %74

72:                                               ; preds = %66
  %73 = load i64, ptr %6, align 8
  store i64 %73, ptr %9, align 8
  br label %78

74:                                               ; preds = %66
  %75 = load ptr, ptr %4, align 8
  %76 = getelementptr inbounds %struct.png_struct_def, ptr %75, i32 0, i32 105
  %77 = load i64, ptr %76, align 8
  store i64 %77, ptr %9, align 8
  br label %78

78:                                               ; preds = %74, %72
  %79 = load ptr, ptr %7, align 8
  %80 = load ptr, ptr %4, align 8
  %81 = getelementptr inbounds %struct.png_struct_def, ptr %80, i32 0, i32 98
  %82 = load ptr, ptr %81, align 8
  %83 = load i64, ptr %9, align 8
  call void @llvm.memcpy.p0.p0.i64(ptr align 1 %79, ptr align 1 %82, i64 %83, i1 false)
  %84 = load i64, ptr %9, align 8
  %85 = load ptr, ptr %4, align 8
  %86 = getelementptr inbounds %struct.png_struct_def, ptr %85, i32 0, i32 104
  %87 = load i64, ptr %86, align 8
  %88 = sub i64 %87, %84
  store i64 %88, ptr %86, align 8
  %89 = load i64, ptr %9, align 8
  %90 = load ptr, ptr %4, align 8
  %91 = getelementptr inbounds %struct.png_struct_def, ptr %90, i32 0, i32 105
  %92 = load i64, ptr %91, align 8
  %93 = sub i64 %92, %89
  store i64 %93, ptr %91, align 8
  %94 = load i64, ptr %9, align 8
  %95 = load ptr, ptr %4, align 8
  %96 = getelementptr inbounds %struct.png_struct_def, ptr %95, i32 0, i32 98
  %97 = load ptr, ptr %96, align 8
  %98 = getelementptr inbounds i8, ptr %97, i64 %94
  store ptr %98, ptr %96, align 8
  br label %99

99:                                               ; preds = %78, %61, %58, %12
  ret void
}