; Function Attrs: mustprogress nofree norecurse nosync nounwind willreturn memory(readwrite, inaccessiblemem: none) uwtable
define void @png_push_fill_buffer(ptr noundef %0, ptr nocapture noundef writeonly %1, i64 noundef %2) #3 {
  %4 = icmp eq ptr %0, null
  br i1 %4, label %34, label %5

5:                                                ; preds = %3
  %6 = getelementptr inbounds i8, ptr %0, i64 848
  %7 = load i64, ptr %6, align 8
  %.not = icmp eq i64 %7, 0
  br i1 %.not, label %20, label %8

8:                                                ; preds = %5
  %. = tail call i64 @llvm.umin.i64(i64 %7, i64 %2)
  %9 = getelementptr inbounds i8, ptr %0, i64 808
  %10 = load ptr, ptr %9, align 8
  tail call void @llvm.memcpy.p0.p0.i64(ptr align 1 %1, ptr align 1 %10, i64 %., i1 false)
  %11 = sub i64 %2, %.
  %12 = getelementptr inbounds i8, ptr %1, i64 %.
  %13 = getelementptr inbounds i8, ptr %0, i64 864
  %14 = load i64, ptr %13, align 8
  %15 = sub i64 %14, %.
  store i64 %15, ptr %13, align 8
  %16 = load i64, ptr %6, align 8
  %17 = sub i64 %16, %.
  store i64 %17, ptr %6, align 8
  %18 = load ptr, ptr %9, align 8
  %19 = getelementptr inbounds i8, ptr %18, i64 %.
  store ptr %19, ptr %9, align 8
  br label %20

20:                                               ; preds = %8, %5
  %.036 = phi i64 [ %11, %8 ], [ %2, %5 ]
  %.035 = phi ptr [ %12, %8 ], [ %1, %5 ]
  %.not41 = icmp eq i64 %.036, 0
  br i1 %.not41, label %34, label %21

21:                                               ; preds = %20
  %22 = getelementptr inbounds i8, ptr %0, i64 872
  %23 = load i64, ptr %22, align 8
  %.not42 = icmp eq i64 %23, 0
  br i1 %.not42, label %34, label %24

24:                                               ; preds = %21
  %.036. = tail call i64 @llvm.umin.i64(i64 %.036, i64 %23)
  %25 = getelementptr inbounds i8, ptr %0, i64 824
  %26 = load ptr, ptr %25, align 8
  tail call void @llvm.memcpy.p0.p0.i64(ptr align 1 %.035, ptr align 1 %26, i64 %.036., i1 false)
  %27 = getelementptr inbounds i8, ptr %0, i64 864
  %28 = load <2 x i64>, ptr %27, align 8
  %29 = insertelement <2 x i64> poison, i64 %.036., i64 0
  %30 = shufflevector <2 x i64> %29, <2 x i64> poison, <2 x i32> zeroinitializer
  %31 = sub <2 x i64> %28, %30
  store <2 x i64> %31, ptr %27, align 8
  %32 = load ptr, ptr %25, align 8
  %33 = getelementptr inbounds i8, ptr %32, i64 %.036.
  store ptr %33, ptr %25, align 8
  br label %34

34:                                               ; preds = %3, %24, %21, %20
  ret void
}